target datalayout = "e-m:e-p270:32:32-p271:32:32-p272:64:64-i64:64-i128:128-f80:128-n8:16:32:64-S128"
target triple = "x86_64-pc-linux-gnu"

%struct.ARG_list = type { ptr, i8, [0 x i8] }

; Function Attrs: mustprogress uwtable
define hidden noundef ptr @_Z11free_paramsP6pj_ctxP8ARG_listi(ptr noundef %0, ptr noundef %1, i32 noundef %2) #5 {
  %4 = alloca ptr, align 8
  %5 = alloca ptr, align 8
  %6 = alloca i32, align 4
  %7 = alloca ptr, align 8
  %8 = alloca ptr, align 8
  store ptr %0, ptr %4, align 8, !tbaa !10
  store ptr %1, ptr %5, align 8, !tbaa !12
  store i32 %2, ptr %6, align 4, !tbaa !14
  call void @llvm.lifetime.start.p0(i64 8, ptr %7) #18
  call void @llvm.lifetime.start.p0(i64 8, ptr %8) #18
  %9 = load ptr, ptr %5, align 8, !tbaa !12
  store ptr %9, ptr %7, align 8, !tbaa !12
  br label %10

10:                                               ; preds = %18, %3
  %11 = load ptr, ptr %7, align 8, !tbaa !12
  %12 = icmp ne ptr %11, null
  br i1 %12, label %13, label %20

13:                                               ; preds = %10
  %14 = load ptr, ptr %7, align 8, !tbaa !12
  %15 = getelementptr inbounds nuw %struct.ARG_list, ptr %14, i32 0, i32 0
  %16 = load ptr, ptr %15, align 8, !tbaa !12
  store ptr %16, ptr %8, align 8, !tbaa !12
  %17 = load ptr, ptr %7, align 8, !tbaa !12
  call void @free(ptr noundef %17) #18
  br label %18

18:                                               ; preds = %13
  %19 = load ptr, ptr %8, align 8, !tbaa !12
  store ptr %19, ptr %7, align 8, !tbaa !12
  br label %10, !llvm.loop !16

20:                                               ; preds = %10
  %21 = load ptr, ptr %4, align 8, !tbaa !10
  %22 = load i32, ptr %6, align 4, !tbaa !14
  call void @_Z22proj_context_errno_setP6pj_ctxi(ptr noundef %21, i32 noundef %22)
  call void @llvm.lifetime.end.p0(i64 8, ptr %8) #18
  call void @llvm.lifetime.end.p0(i64 8, ptr %7) #18
  ret ptr null
}