; Function Attrs: mustprogress uwtable
define hidden noalias noundef ptr @_Z11free_paramsP6pj_ctxP8ARG_listi(ptr noundef %0, ptr noundef %1, i32 noundef %2) local_unnamed_addr #4 {
  %.not6 = icmp eq ptr %1, null
  br i1 %.not6, label %._crit_edge, label %.lr.ph

.lr.ph:                                           ; preds = %3, %.lr.ph
  %.07 = phi ptr [ %4, %.lr.ph ], [ %1, %3 ]
  %4 = load ptr, ptr %.07, align 8, !tbaa !3
  tail call void @free(ptr noundef nonnull %.07) #19
  %.not = icmp eq ptr %4, null
  br i1 %.not, label %._crit_edge, label %.lr.ph, !llvm.loop !8

._crit_edge:                                      ; preds = %.lr.ph, %3
  tail call void @_Z22proj_context_errno_setP6pj_ctxi(ptr noundef %0, i32 noundef %2)
  ret ptr null
}